; Function Attrs: null_pointer_is_valid sspstrong uwtable
define zeroext i1 @prefs_get_bool_value(ptr noundef readonly captures(none) %0, i32 noundef %1) local_unnamed_addr #1 {
  switch i32 %1, label %10 [
    i32 0, label %3
    i32 1, label %5
    i32 2, label %7
  ]

3:                                                ; preds = %2
  %4 = getelementptr inbounds nuw i8, ptr %0, i64 56
  br label %11

5:                                                ; preds = %2
  %6 = getelementptr inbounds nuw i8, ptr %0, i64 48
  br label %11

7:                                                ; preds = %2
  %8 = getelementptr inbounds nuw i8, ptr %0, i64 40
  %9 = load ptr, ptr %8, align 8
  br label %11

10:                                               ; preds = %2
  tail call void (ptr, i32, ptr, i64, ptr, ptr, ...) @ws_log_fatal_full(ptr noundef nonnull @.str, i32 noundef 7, ptr noundef nonnull @.str.1, i64 noundef 1312, ptr noundef nonnull @__func__.prefs_get_bool_value, ptr noundef nonnull @.str.8) #26
  unreachable

11:                                               ; preds = %7, %5, %3
  %.0.in.in = phi ptr [ %9, %7 ], [ %6, %5 ], [ %4, %3 ]
  %.0.in = load i8, ptr %.0.in.in, align 1, !range !6, !noundef !7
  %.0 = trunc nuw i8 %.0.in to i1
  ret i1 %.0
}